Certificate:
    Data:
        Version: 3 (0x2)
        Serial Number: 4 (0x4)
    Signature Algorithm: ecdsa-with-SHA256
        Issuer: O=Acme Co, CN=Root CA
        Validity
            Not Before: Apr 27 18:44:06 2022 GMT
            Not After : Apr 27 18:44:06 2023 GMT
        Subject: O=Acme Co, CN=client_auth_test_cert
        Subject Public Key Info:
            Public Key Algorithm: id-ecPublicKey
                Public-Key: (256 bit)
                pub: 
                    04:ea:7f:32:cd:ba:73:78:cf:54:77:a2:37:a4:50:
                    c0:42:25:35:59:c8:31:0a:53:81:32:51:f3:cd:22:
                    25:98:97:76:8c:d7:3b:19:aa:37:26:d4:c3:72:30:
                    30:8e:bf:b1:f9:6d:f8:fd:4c:f8:9e:5f:9c:2b:67:
                    ee:11:54:08:89
                ASN1 OID: prime256v1
                NIST CURVE: P-256
        X509v3 extensions:
            X509v3 Key Usage: critical
                Digital Signature
            X509v3 Extended Key Usage: 
                TLS Web Client Authentication
            X509v3 Basic Constraints: critical
                CA:FALSE
    Signature Algorithm: ecdsa-with-SHA256
         30:44:02:20:69:99:be:ba:3a:ce:0b:7d:d9:54:d8:0a:b5:4a:
         b0:30:79:d5:fd:b0:38:d3:2f:99:75:5c:4f:5b:cd:3d:51:40:
         02:20:55:d8:91:22:af:b9:b0:22:be:30:28:e5:90:59:6c:d0:
         7f:dd:7d:b6:08:8d:72:4b:6f:1d:57:7a:fa:33:b9:48
-----BEGIN CERTIFICATE-----
MIIBeTCCASCgAwIBAgIBBDAKBggqhkjOPQQDAjAkMRAwDgYDVQQKEwdBY21lIENv
MRAwDgYDVQQDEwdSb290IENBMB4XDTIyMDQyNzE4NDQwNloXDTIzMDQyNzE4NDQw
NlowMjEQMA4GA1UEChMHQWNtZSBDbzEeMBwGA1UEAwwVY2xpZW50X2F1dGhfdGVz
dF9jZXJ0MFkwEwYHKoZIzj0CAQYIKoZIzj0DAQcDQgAE6n8yzbpzeM9Ud6I3pFDA
QiU1WcgxClOBMlHzzSIlmJd2jNc7Gao3JtTDcjAwjr+x+W34/Uz4nl+cK2fuEVQI
iaM1MDMwDgYDVR0PAQH/BAQDAgeAMBMGA1UdJQQMMAoGCCsGAQUFBwMCMAwGA1Ud
EwEB/wQCMAAwCgYIKoZIzj0EAwIDRwAwRAIgaZm+ujrOC33ZVNgKtUqwMHnV/bA4
0y+ZdVxPW809UUACIFXYkSKvubAivjAo5ZBZbNB/3X22CI1yS28dV3r6M7lI
-----END CERTIFICATE-----
