Certificate:
    Data:
        Version: 3 (0x2)
        Serial Number:
            3b:6e:f3:ca:35:c0:e6:7c:74:43:1b:0f:b6:e1:5d:3e
    Signature Algorithm: ecdsa-with-SHA256
        Issuer: O=Acme Co, CN=Root CA
        Validity
            Not Before: Apr 27 18:44:06 2022 GMT
            Not After : Apr 27 18:44:06 2023 GMT
        Subject: O=Acme Co, CN=test_cert_1
        Subject Public Key Info:
            Public Key Algorithm: id-ecPublicKey
                Public-Key: (256 bit)
                pub: 
                    04:b2:40:4d:82:41:74:80:a2:b6:9b:26:b3:dd:01:
                    c6:22:6f:cb:85:93:a5:a2:14:f9:e5:21:3a:ad:96:
                    07:53:51:14:ca:24:13:21:74:0b:a6:60:b5:57:dc:
                    2b:cb:1d:ac:fa:64:6e:47:6c:ca:93:6b:cf:74:01:
                    47:6b:c7:a1:2e
                ASN1 OID: prime256v1
                NIST CURVE: P-256
        X509v3 extensions:
            X509v3 Key Usage: critical
                Digital Signature, Key Encipherment
            X509v3 Extended Key Usage: 
                TLS Web Server Authentication
            X509v3 Basic Constraints: critical
                CA:FALSE
            X509v3 Subject Alternative Name: 
                DNS:localhost, IP Address:127.0.0.1
    Signature Algorithm: ecdsa-with-SHA256
         30:46:02:21:00:f5:1f:84:39:8b:17:b5:03:08:9d:62:a4:a2:
         a1:2b:dc:6e:9c:37:a3:48:28:41:fb:55:99:8a:8b:00:96:31:
         b9:02:21:00:90:aa:e4:96:69:ad:03:6d:73:87:b5:8b:a2:c6:
         16:cd:ee:7b:e3:27:0f:f9:c0:a4:09:22:3c:0e:f5:9b:db:f5
-----BEGIN CERTIFICATE-----
MIIBnDCCAUGgAwIBAgIQO27zyjXA5nx0QxsPtuFdPjAKBggqhkjOPQQDAjAkMRAw
DgYDVQQKEwdBY21lIENvMRAwDgYDVQQDEwdSb290IENBMB4XDTIyMDQyNzE4NDQw
NloXDTIzMDQyNzE4NDQwNlowKDEQMA4GA1UEChMHQWNtZSBDbzEUMBIGA1UEAwwL
dGVzdF9jZXJ0XzEwWTATBgcqhkjOPQIBBggqhkjOPQMBBwNCAASyQE2CQXSAorab
JrPdAcYib8uFk6WiFPnlITqtlgdTURTKJBMhdAumYLVX3CvLHaz6ZG5HbMqTa890
AUdrx6Euo1EwTzAOBgNVHQ8BAf8EBAMCBaAwEwYDVR0lBAwwCgYIKwYBBQUHAwEw
DAYDVR0TAQH/BAIwADAaBgNVHREEEzARgglsb2NhbGhvc3SHBH8AAAEwCgYIKoZI
zj0EAwIDSQAwRgIhAPUfhDmLF7UDCJ1ipKKhK9xunDejSChB+1WZiosAljG5AiEA
kKrklmmtA21zh7WLosYWze574ycP+cCkCSI8DvWb2/U=
-----END CERTIFICATE-----
