Certificate:
    Data:
        Version: 3 (0x2)
        Serial Number:
            22:03:25:26:b0:da:fb:34:f3:57:1a:0e:d9:8a:cc:0d
    Signature Algorithm: ecdsa-with-SHA256
        Issuer: O=Acme Co, CN=Root CA
        Validity
            Not Before: Apr 27 18:44:06 2022 GMT
            Not After : Apr 27 18:44:06 2023 GMT
        Subject: O=Acme Co, CN=Root CA
        Subject Public Key Info:
            Public Key Algorithm: id-ecPublicKey
                Public-Key: (256 bit)
                pub: 
                    04:ad:6d:80:71:23:6f:f0:95:52:9e:65:3a:3d:ad:
                    b6:9a:5f:fe:a0:57:56:49:40:59:6b:10:31:ce:45:
                    f2:15:af:fa:e8:3d:ce:e0:31:7e:bc:b3:7c:0f:7c:
                    6c:9d:82:65:93:34:1e:cd:cc:ce:b8:93:71:7b:b1:
                    8b:71:e3:d2:25
                ASN1 OID: prime256v1
                NIST CURVE: P-256
        X509v3 extensions:
            X509v3 Key Usage: critical
                Certificate Sign
            X509v3 Extended Key Usage: 
                TLS Web Server Authentication
            X509v3 Basic Constraints: critical
                CA:TRUE
            X509v3 Subject Key Identifier: 
                13:38:7E:1E:4F:7A:54:34:CB:E3:57:9E:07:26:6A:ED:2C:35:E6:BF
    Signature Algorithm: ecdsa-with-SHA256
         30:45:02:21:00:ff:58:38:74:95:cf:f3:67:d2:45:4c:e5:fb:
         f8:6e:92:78:aa:1a:79:bb:fe:7d:bf:cd:dd:42:7b:a4:72:65:
         67:02:20:69:23:1a:11:af:57:04:a7:c6:96:db:16:ac:78:03:
         88:3a:10:6f:82:9f:d0:d3:b0:03:e7:c0:e6:85:14:f3:84
-----BEGIN CERTIFICATE-----
MIIBnTCCAUOgAwIBAgIQIgMlJrDa+zTzVxoO2YrMDTAKBggqhkjOPQQDAjAkMRAw
DgYDVQQKEwdBY21lIENvMRAwDgYDVQQDEwdSb290IENBMB4XDTIyMDQyNzE4NDQw
NloXDTIzMDQyNzE4NDQwNlowJDEQMA4GA1UEChMHQWNtZSBDbzEQMA4GA1UEAxMH
Um9vdCBDQTBZMBMGByqGSM49AgEGCCqGSM49AwEHA0IABK1tgHEjb/CVUp5lOj2t
tppf/qBXVklAWWsQMc5F8hWv+ug9zuAxfryzfA98bJ2CZZM0Hs3MzriTcXuxi3Hj
0iWjVzBVMA4GA1UdDwEB/wQEAwICBDATBgNVHSUEDDAKBggrBgEFBQcDATAPBgNV
HRMBAf8EBTADAQH/MB0GA1UdDgQWBBQTOH4eT3pUNMvjV54HJmrtLDXmvzAKBggq
hkjOPQQDAgNIADBFAiEA/1g4dJXP82fSRUzl+/hukniqGnm7/n2/zd1Ce6RyZWcC
IGkjGhGvVwSnxpbbFqx4A4g6EG+Cn9DTsAPnwOaFFPOE
-----END CERTIFICATE-----
